target datalayout = "e-m:e-p270:32:32-p271:32:32-p272:64:64-i64:64-i128:128-f80:128-n8:16:32:64-S128"
target triple = "x86_64-pc-linux-gnu"

; Function Attrs: nounwind uwtable
define hidden void @KeccakP1600_OverwriteLanes(ptr noundef %0, ptr noundef %1, i32 noundef %2) #0 {
  %4 = alloca ptr, align 8
  %5 = alloca ptr, align 8
  %6 = alloca i32, align 4
  %7 = alloca i32, align 4
  store ptr %0, ptr %4, align 8, !tbaa !4
  store ptr %1, ptr %5, align 8, !tbaa !12
  store i32 %2, ptr %6, align 4, !tbaa !10
  call void @llvm.lifetime.start.p0(i64 4, ptr %7) #4
  store i32 0, ptr %7, align 4, !tbaa !10
  br label %8

8:                                                ; preds = %52, %3
  %9 = load i32, ptr %7, align 4, !tbaa !10
  %10 = load i32, ptr %6, align 4, !tbaa !10
  %11 = icmp ult i32 %9, %10
  br i1 %11, label %12, label %55

12:                                               ; preds = %8
  %13 = load i32, ptr %7, align 4, !tbaa !10
  %14 = icmp eq i32 %13, 1
  br i1 %14, label %30, label %15

15:                                               ; preds = %12
  %16 = load i32, ptr %7, align 4, !tbaa !10
  %17 = icmp eq i32 %16, 2
  br i1 %17, label %30, label %18

18:                                               ; preds = %15
  %19 = load i32, ptr %7, align 4, !tbaa !10
  %20 = icmp eq i32 %19, 8
  br i1 %20, label %30, label %21

21:                                               ; preds = %18
  %22 = load i32, ptr %7, align 4, !tbaa !10
  %23 = icmp eq i32 %22, 12
  br i1 %23, label %30, label %24

24:                                               ; preds = %21
  %25 = load i32, ptr %7, align 4, !tbaa !10
  %26 = icmp eq i32 %25, 17
  br i1 %26, label %30, label %27

27:                                               ; preds = %24
  %28 = load i32, ptr %7, align 4, !tbaa !10
  %29 = icmp eq i32 %28, 20
  br i1 %29, label %30, label %41

30:                                               ; preds = %27, %24, %21, %18, %15, %12
  %31 = load ptr, ptr %5, align 8, !tbaa !12
  %32 = load i32, ptr %7, align 4, !tbaa !10
  %33 = zext i32 %32 to i64
  %34 = getelementptr inbounds nuw i64, ptr %31, i64 %33
  %35 = load i64, ptr %34, align 8, !tbaa !8
  %36 = xor i64 %35, -1
  %37 = load ptr, ptr %4, align 8, !tbaa !4
  %38 = load i32, ptr %7, align 4, !tbaa !10
  %39 = zext i32 %38 to i64
  %40 = getelementptr inbounds nuw i64, ptr %37, i64 %39
  store i64 %36, ptr %40, align 8, !tbaa !8
  br label %51

41:                                               ; preds = %27
  %42 = load ptr, ptr %5, align 8, !tbaa !12
  %43 = load i32, ptr %7, align 4, !tbaa !10
  %44 = zext i32 %43 to i64
  %45 = getelementptr inbounds nuw i64, ptr %42, i64 %44
  %46 = load i64, ptr %45, align 8, !tbaa !8
  %47 = load ptr, ptr %4, align 8, !tbaa !4
  %48 = load i32, ptr %7, align 4, !tbaa !10
  %49 = zext i32 %48 to i64
  %50 = getelementptr inbounds nuw i64, ptr %47, i64 %49
  store i64 %46, ptr %50, align 8, !tbaa !8
  br label %51

51:                                               ; preds = %41, %30
  br label %52

52:                                               ; preds = %51
  %53 = load i32, ptr %7, align 4, !tbaa !10
  %54 = add i32 %53, 1
  store i32 %54, ptr %7, align 4, !tbaa !10
  br label %8

55:                                               ; preds = %8
  call void @llvm.lifetime.end.p0(i64 4, ptr %7) #4
  ret void
}