; Function Attrs: nofree norecurse nosync nounwind memory(argmem: readwrite) uwtable
define hidden void @KeccakP1600_OverwriteLanes(ptr noundef writeonly captures(none) %0, ptr noundef readonly captures(none) %1, i32 noundef %2) local_unnamed_addr #5 {
  %.not = icmp eq i32 %2, 0
  br i1 %.not, label %._crit_edge, label %.lr.ph.preheader

.lr.ph.preheader:                                 ; preds = %3
  %wide.trip.count = zext i32 %2 to i64
  br label %.lr.ph

.lr.ph:                                           ; preds = %.lr.ph.preheader, %12
  %indvars.iv = phi i64 [ 0, %.lr.ph.preheader ], [ %indvars.iv.next, %12 ]
  %4 = trunc nuw i64 %indvars.iv to i32
  switch i32 %4, label %9 [
    i32 20, label %5
    i32 17, label %5
    i32 12, label %5
    i32 8, label %5
    i32 2, label %5
    i32 1, label %5
  ]

5:                                                ; preds = %.lr.ph, %.lr.ph, %.lr.ph, %.lr.ph, %.lr.ph, %.lr.ph
  %6 = getelementptr inbounds nuw i64, ptr %1, i64 %indvars.iv
  %7 = load i64, ptr %6, align 8, !tbaa !4
  %8 = xor i64 %7, -1
  br label %12

9:                                                ; preds = %.lr.ph
  %10 = getelementptr inbounds nuw i64, ptr %1, i64 %indvars.iv
  %11 = load i64, ptr %10, align 8, !tbaa !4
  br label %12

12:                                               ; preds = %5, %9
  %.sink = phi i64 [ %8, %5 ], [ %11, %9 ]
  %13 = getelementptr inbounds nuw i64, ptr %0, i64 %indvars.iv
  store i64 %.sink, ptr %13, align 8, !tbaa !4
  %indvars.iv.next = add nuw nsw i64 %indvars.iv, 1
  %exitcond.not = icmp eq i64 %indvars.iv.next, %wide.trip.count
  br i1 %exitcond.not, label %._crit_edge, label %.lr.ph

._crit_edge:                                      ; preds = %12, %3
  ret void
}